; Function Attrs: nounwind uwtable
define internal range(i32 -1, 1) i32 @sm_init(ptr noundef %0, ptr noundef %1, ptr noundef %2) #0 {
  %4 = alloca ptr, align 8
  call void @llvm.lifetime.start.p0(i64 8, ptr nonnull %4) #8
  %5 = icmp eq ptr %2, null
  br i1 %5, label %8, label %6

6:                                                ; preds = %3
  %7 = tail call i32 @_PyArg_NoKeywords(ptr noundef nonnull @.str.11, ptr noundef nonnull %2) #8
  %.not = icmp eq i32 %7, 0
  br i1 %.not, label %26, label %8

8:                                                ; preds = %6, %3
  %9 = call i32 (ptr, ptr, i64, i64, ...) @PyArg_UnpackTuple(ptr noundef %1, ptr noundef nonnull @.str.11, i64 noundef 1, i64 noundef 1, ptr noundef nonnull %4) #8
  %.not11 = icmp eq i32 %9, 0
  br i1 %.not11, label %26, label %10

10:                                               ; preds = %8
  %11 = getelementptr inbounds nuw i8, ptr %0, i64 16
  %12 = load ptr, ptr %11, align 8, !tbaa !96
  %13 = load ptr, ptr %4, align 8, !tbaa !96
  %14 = load i32, ptr %13, align 8, !tbaa !99
  %15 = icmp slt i32 %14, 0
  br i1 %15, label %_Py_NewRef.exit, label %16

16:                                               ; preds = %10
  %17 = add nuw i32 %14, 1
  store i32 %17, ptr %13, align 8, !tbaa !99
  br label %_Py_NewRef.exit

_Py_NewRef.exit:                                  ; preds = %10, %16
  store ptr %13, ptr %11, align 8, !tbaa !96
  %.not.i = icmp eq ptr %12, null
  br i1 %.not.i, label %Py_XDECREF.exit, label %18

18:                                               ; preds = %_Py_NewRef.exit
  %19 = load i32, ptr %12, align 8, !tbaa !99
  %.not.i.i = icmp sgt i32 %19, -1
  br i1 %.not.i.i, label %20, label %Py_XDECREF.exit

20:                                               ; preds = %18
  %21 = add nsw i32 %19, -1
  store i32 %21, ptr %12, align 8, !tbaa !99
  %22 = icmp eq i32 %21, 0
  br i1 %22, label %23, label %Py_XDECREF.exit

23:                                               ; preds = %20
  call void @_Py_Dealloc(ptr noundef nonnull %12) #8
  br label %Py_XDECREF.exit

Py_XDECREF.exit:                                  ; preds = %_Py_NewRef.exit, %18, %20, %23
  %24 = load ptr, ptr %11, align 8, !tbaa !156
  %25 = call fastcc i32 @functools_wraps(ptr noundef nonnull %0, ptr noundef %24)
  br label %26

26:                                               ; preds = %Py_XDECREF.exit, %8, %6
  %.0 = phi i32 [ -1, %6 ], [ -1, %8 ], [ %25, %Py_XDECREF.exit ]
  call void @llvm.lifetime.end.p0(i64 8, ptr nonnull %4) #8
  ret i32 %.0
}